(dp1
S'start_date'
p2
(dp3
S'length'
p4
I512
sS'unique'
p5
I00
sS'sortable'
p6
I3
sS'sql'
p7
S'DATE NOT NULL'
p8
sS'notnull'
p9
I01
sS'type'
p10
S'date'
p11
ssS'id'
p12
(dp13
g4
I512
sg5
I00
sg6
I1
sg7
S'INTEGER PRIMARY KEY AUTOINCREMENT'
p14
sg9
I00
sg10
g12
ssS'end_date'
p15
(dp16
g4
I512
sg5
I00
sg6
I4
sg7
S'DATE NOT NULL'
p17
sg9
I01
sg10
g11
ssS'name'
p18
(dp19
g4
I512
sg5
I00
sg6
I2
sg7
S'CHAR(512) NOT NULL'
p20
sg9
I01
sg10
S'string'
p21
ss.